; ModuleID = '20/670.c'
source_filename = "20/670.c"
target datalayout = "e-m:e-p270:32:32-p271:32:32-p272:64:64-i64:64-f80:128-n8:16:32:64-S128"
target triple = "x86_64-pc-linux-gnu"

@.str = private unnamed_addr constant [5 x i8] c"%s%s\00", align 1
@.str.1 = private unnamed_addr constant [4 x i8] c"%s\0A\00", align 1

; Function Attrs: noinline nounwind uwtable
define dso_local i32 @main() #0 {
  %1 = alloca i32, align 4
  %2 = alloca i8*, align 8
  %3 = alloca i8*, align 8
  %4 = alloca i8*, align 8
  %5 = alloca i8*, align 8
  %6 = alloca i8*, align 8
  %7 = alloca i32, align 4
  %8 = alloca i8*, align 8
  store i32 0, i32* %1, align 4
  %9 = call noalias i8* @malloc(i64 100) #3
  store i8* %9, i8** %2, align 8
  %10 = call noalias i8* @malloc(i64 100) #3
  store i8* %10, i8** %3, align 8
  %11 = call noalias i8* @malloc(i64 100) #3
  store i8* %11, i8** %4, align 8
  %12 = call noalias i8* @malloc(i64 100) #3
  store i8* %12, i8** %5, align 8
  br label %13

13:                                               ; preds = %90, %0
  %14 = load i8*, i8** %2, align 8
  %15 = load i8*, i8** %3, align 8
  %16 = call i32 (i8*, ...) @__isoc99_scanf(i8* getelementptr inbounds ([5 x i8], [5 x i8]* @.str, i64 0, i64 0), i8* %14, i8* %15)
  %17 = icmp ne i32 %16, -1
  br i1 %17, label %18, label %94

18:                                               ; preds = %13
  store i32 0, i32* %7, align 4
  %19 = load i8*, i8** %2, align 8
  store i8* %19, i8** %5, align 8
  %20 = load i8*, i8** %2, align 8
  store i8* %20, i8** %6, align 8
  br label %21

21:                                               ; preds = %36, %18
  %22 = load i8*, i8** %2, align 8
  %23 = load i8, i8* %22, align 1
  %24 = sext i8 %23 to i32
  %25 = icmp ne i32 %24, 0
  br i1 %25, label %26, label %39

26:                                               ; preds = %21
  %27 = load i8*, i8** %2, align 8
  %28 = load i8, i8* %27, align 1
  %29 = sext i8 %28 to i32
  %30 = load i32, i32* %7, align 4
  %31 = icmp sgt i32 %29, %30
  br i1 %31, label %32, label %36

32:                                               ; preds = %26
  %33 = load i8*, i8** %2, align 8
  %34 = load i8, i8* %33, align 1
  %35 = sext i8 %34 to i32
  store i32 %35, i32* %7, align 4
  br label %36

36:                                               ; preds = %32, %26
  %37 = load i8*, i8** %2, align 8
  %38 = getelementptr inbounds i8, i8* %37, i32 1
  store i8* %38, i8** %2, align 8
  br label %21

39:                                               ; preds = %21
  %40 = load i8*, i8** %4, align 8
  store i8* %40, i8** %8, align 8
  br label %41

41:                                               ; preds = %47, %39
  %42 = load i8*, i8** %5, align 8
  %43 = load i8, i8* %42, align 1
  %44 = sext i8 %43 to i32
  %45 = load i32, i32* %7, align 4
  %46 = icmp ne i32 %44, %45
  br i1 %46, label %47, label %55

47:                                               ; preds = %41
  %48 = load i8*, i8** %5, align 8
  %49 = load i8, i8* %48, align 1
  %50 = load i8*, i8** %4, align 8
  store i8 %49, i8* %50, align 1
  %51 = load i8*, i8** %4, align 8
  %52 = getelementptr inbounds i8, i8* %51, i32 1
  store i8* %52, i8** %4, align 8
  %53 = load i8*, i8** %5, align 8
  %54 = getelementptr inbounds i8, i8* %53, i32 1
  store i8* %54, i8** %5, align 8
  br label %41

55:                                               ; preds = %41
  %56 = load i8*, i8** %5, align 8
  %57 = load i8, i8* %56, align 1
  %58 = load i8*, i8** %4, align 8
  store i8 %57, i8* %58, align 1
  %59 = load i8*, i8** %4, align 8
  %60 = getelementptr inbounds i8, i8* %59, i32 1
  store i8* %60, i8** %4, align 8
  %61 = load i8*, i8** %5, align 8
  %62 = getelementptr inbounds i8, i8* %61, i32 1
  store i8* %62, i8** %5, align 8
  %63 = load i8*, i8** %4, align 8
  store i8 0, i8* %63, align 1
  %64 = load i8*, i8** %8, align 8
  %65 = load i8*, i8** %3, align 8
  %66 = call i8* @strcat(i8* %64, i8* %65) #3
  br label %67

67:                                               ; preds = %72, %55
  %68 = load i8*, i8** %4, align 8
  %69 = load i8, i8* %68, align 1
  %70 = sext i8 %69 to i32
  %71 = icmp ne i32 %70, 0
  br i1 %71, label %72, label %76

72:                                               ; preds = %67
  %73 = load i8*, i8** %4, align 8
  %74 = getelementptr inbounds i8, i8* %73, i32 1
  store i8* %74, i8** %4, align 8
  %75 = load i8, i8* %73, align 1
  br label %67

76:                                               ; preds = %67
  br label %77

77:                                               ; preds = %82, %76
  %78 = load i8*, i8** %5, align 8
  %79 = load i8, i8* %78, align 1
  %80 = sext i8 %79 to i32
  %81 = icmp ne i32 %80, 0
  br i1 %81, label %82, label %90

82:                                               ; preds = %77
  %83 = load i8*, i8** %5, align 8
  %84 = load i8, i8* %83, align 1
  %85 = load i8*, i8** %4, align 8
  store i8 %84, i8* %85, align 1
  %86 = load i8*, i8** %4, align 8
  %87 = getelementptr inbounds i8, i8* %86, i32 1
  store i8* %87, i8** %4, align 8
  %88 = load i8*, i8** %5, align 8
  %89 = getelementptr inbounds i8, i8* %88, i32 1
  store i8* %89, i8** %5, align 8
  br label %77

90:                                               ; preds = %77
  %91 = load i8*, i8** %4, align 8
  store i8 0, i8* %91, align 1
  %92 = load i8*, i8** %8, align 8
  %93 = call i32 (i8*, ...) @printf(i8* getelementptr inbounds ([4 x i8], [4 x i8]* @.str.1, i64 0, i64 0), i8* %92)
  br label %13

94:                                               ; preds = %13
  ret i32 0
}

; Function Attrs: nounwind
declare dso_local noalias i8* @malloc(i64) #1

declare dso_local i32 @__isoc99_scanf(i8*, ...) #2

; Function Attrs: nounwind
declare dso_local i8* @strcat(i8*, i8*) #1

declare dso_local i32 @printf(i8*, ...) #2


!llvm.module.flags = !{!0}
!llvm.ident = !{!1}

!0 = !{i32 1, !"wchar_size", i32 4}
!1 = !{!"clang version 10.0.0-4ubuntu1 "}
